(dp0
S'xlen'
p1
(lp2
I16
aI16
aI1600
aI1600
aI16000
aI16000
asS'func'
p3
(lp4
S'f'
p5
aS'g'
p6
ag5
ag6
ag5
ag6
asS'time'
p7
(lp8
F5.602836608886719e-05
aF0.0019690990447998047
aF0.004461050033569336
aF0.5493581295013428
aF0.044595956802368164
aF89.51975011825562
as.