(dp0
S'xlen'
p1
(lp2
I16
aI16
aI1600
aI1600
aI16000
aI16000
asS'func'
p3
(lp4
S'f'
p5
aS'g'
p6
ag5
ag6
ag5
ag6
asS'time'
p7
(lp8
F1.6927719116210938e-05
aF0.0023479461669921875
aF0.0018031597137451172
aF0.6050240993499756
aF0.016231060028076172
aF98.91143703460693
as.