(dp0
S'xlen'
p1
(lp2
I16
aI16
aI1600
aI1600
aI16000
aI16000
asS'func'
p3
(lp4
S'f'
p5
aS'g'
p6
ag5
ag6
ag5
ag6
asS'time'
p7
(lp8
F7.152557373046875e-06
aF0.00030493736267089844
aF7.867813110351562e-06
aF0.046294212341308594
aF1.2874603271484375e-05
aF5.2889158725738525
as.